target datalayout = "e-m:e-p270:32:32-p271:32:32-p272:64:64-i64:64-i128:128-f80:128-n8:16:32:64-S128"
target triple = "x86_64-pc-linux-gnu"

%struct.redisServer = type { i32, i64, ptr, ptr, ptr, i32, i32, i32, i32, i32, ptr, ptr, ptr, ptr, ptr, i32, i32, i32, i32, i64, i32, i32, i32, i32, ptr, i32, i32, [41 x i8], i32, i64, i32, i32, i32, ptr, ptr, i32, i32, i64, ptr, ptr, ptr, ptr, [2 x i32], i32, i32, i32, i32, i32, i32, [16 x ptr], i32, ptr, ptr, i32, [8 x %struct.connListener], i32, %struct.connListener, ptr, ptr, ptr, ptr, ptr, ptr, ptr, ptr, ptr, ptr, i32, ptr, i32, ptr, [3 x %struct.pause_event], [256 x i8], ptr, i64, i32, i32, [128 x i32], i32, i32, i64, i32, i32, i32, i32, i32, i64, i64, i64, i64, i64, i64, i64, i64, i64, i64, double, i64, i64, i64, i64, i64, i64, i64, i64, i64, i64, i64, i64, i64, i64, i64, i64, i64, i64, i64, i64, i64, double, i64, i64, i64, i64, i64, ptr, i64, i64, i64, %struct.malloc_stats, i64, i64, i64, i64, i64, i64, i64, i64, i64, i64, i64, i64, double, [4 x i64], i64, i64, i64, i64, [128 x i64], [128 x i64], i64, i64, [7 x %struct.anon], i64, i64, i64, i64, i64, i64, [4 x %struct.durationStats], i32, i32, i32, i32, i32, i32, i32, i32, i32, i32, i32, i32, i64, i32, i32, i32, i32, i64, i64, i32, i32, i32, i32, i32, ptr, [3 x %struct.clientBufferLimitsConfig], i32, i32, i32, ptr, i32, i32, i32, i32, i32, i32, ptr, ptr, i32, i32, i64, i64, i64, i64, i64, i32, i32, ptr, i32, i32, i64, i64, i64, i64, i64, i32, i32, i64, i32, i32, i32, i32, i32, i32, i32, i32, ptr, i32, i64, i64, i64, i64, i32, ptr, i32, ptr, i32, i32, i32, i64, i64, i64, i64, i32, i32, i32, i32, i32, i32, ptr, i32, i32, ptr, i32, i32, i32, [2 x i32], i32, %struct.redisOpArray, i32, ptr, i32, ptr, i32, i32, i32, i32, i32, i32, i32, [41 x i8], [41 x i8], i64, i64, i64, i64, i32, i32, ptr, i64, i64, %struct.replDataBuf, i64, i64, i32, i32, i32, i32, i32, i32, i32, i32, i32, i64, ptr, i64, ptr, ptr, ptr, i32, i32, ptr, ptr, i32, i32, i32, i64, i64, i64, i64, ptr, ptr, i32, ptr, i64, i32, i32, i32, i64, i32, i32, i32, i32, ptr, i32, i32, [41 x i8], i64, i32, ptr, i32, i32, i64, i64, i32, i32, i32, i32, i32, i64, [3 x i32], i32, i32, i32, [10 x i32], ptr, ptr, i32, i64, ptr, ptr, i32, i32, i32, i32, i64, i64, i64, i64, i64, i64, i64, i64, i64, i64, i32, i32, i64, i64, i32, i64, i64, i64, i64, i64, ptr, ptr, i32, ptr, i32, i32, i32, i32, i64, i64, ptr, ptr, i32, i32, i32, i32, i32, ptr, ptr, ptr, i32, i32, i32, i32, i32, i32, i32, i64, i32, i32, i64, i32, i32, i32, i32, i32, i32, i32, i64, ptr, ptr, i64, ptr, i32, %struct.aclInfo, i32, i64, i32, i32, i32, %struct.redisTLSContextConfig, ptr, ptr, ptr, ptr, ptr, i64, i32, ptr, i32, i32, i32, i64, i32, ptr }
%struct.connListener = type { [16 x i32], i32, ptr, i32, i32, ptr, ptr }
%struct.pause_event = type { i32, i64 }
%struct.malloc_stats = type { i64, i64, i64, i64, i64, i64, i64, i64, i64, i64, i64 }
%struct.anon = type { i64, i64, [16 x i64], i32 }
%struct.durationStats = type { i64, i64, i64 }
%struct.clientBufferLimitsConfig = type { i64, i64, i64 }
%struct.redisOpArray = type { ptr, i32, i32 }
%struct.replDataBuf = type { ptr, i64, i64, i64, i64 }
%struct.aclInfo = type { i64, i64, i64, i64 }
%struct.redisTLSContextConfig = type { ptr, ptr, ptr, ptr, ptr, ptr, ptr, ptr, ptr, ptr, ptr, ptr, i32, i32, i32, i32 }

@.str.22 = private unnamed_addr constant [6 x i8] c"acl.c\00", align 1
@server = external global %struct.redisServer, align 8
@.str.123 = private unnamed_addr constant [28 x i8] c"Unknown ACL_DENIED encoding\00", align 1

; Function Attrs: nounwind uwtable
define dso_local void @ACLUpdateInfoMetrics(i32 noundef %0) #0 {
  %2 = alloca i32, align 4
  store i32 %0, ptr %2, align 4, !tbaa !17
  %3 = load i32, ptr %2, align 4, !tbaa !17
  %4 = icmp eq i32 %3, 3
  br i1 %4, label %5, label %8

5:                                                ; preds = %1
  %6 = load i64, ptr getelementptr inbounds nuw (%struct.redisServer, ptr @server, i32 0, i32 418), align 8, !tbaa !229
  %7 = add nsw i64 %6, 1
  store i64 %7, ptr getelementptr inbounds nuw (%struct.redisServer, ptr @server, i32 0, i32 418), align 8, !tbaa !229
  br label %30

8:                                                ; preds = %1
  %9 = load i32, ptr %2, align 4, !tbaa !17
  %10 = icmp eq i32 %9, 1
  br i1 %10, label %11, label %14

11:                                               ; preds = %8
  %12 = load i64, ptr getelementptr inbounds nuw (%struct.aclInfo, ptr getelementptr inbounds nuw (%struct.redisServer, ptr @server, i32 0, i32 418), i32 0, i32 1), align 8, !tbaa !230
  %13 = add nsw i64 %12, 1
  store i64 %13, ptr getelementptr inbounds nuw (%struct.aclInfo, ptr getelementptr inbounds nuw (%struct.redisServer, ptr @server, i32 0, i32 418), i32 0, i32 1), align 8, !tbaa !230
  br label %29

14:                                               ; preds = %8
  %15 = load i32, ptr %2, align 4, !tbaa !17
  %16 = icmp eq i32 %15, 2
  br i1 %16, label %17, label %20

17:                                               ; preds = %14
  %18 = load i64, ptr getelementptr inbounds nuw (%struct.aclInfo, ptr getelementptr inbounds nuw (%struct.redisServer, ptr @server, i32 0, i32 418), i32 0, i32 2), align 8, !tbaa !231
  %19 = add nsw i64 %18, 1
  store i64 %19, ptr getelementptr inbounds nuw (%struct.aclInfo, ptr getelementptr inbounds nuw (%struct.redisServer, ptr @server, i32 0, i32 418), i32 0, i32 2), align 8, !tbaa !231
  br label %28

20:                                               ; preds = %14
  %21 = load i32, ptr %2, align 4, !tbaa !17
  %22 = icmp eq i32 %21, 4
  br i1 %22, label %23, label %26

23:                                               ; preds = %20
  %24 = load i64, ptr getelementptr inbounds nuw (%struct.aclInfo, ptr getelementptr inbounds nuw (%struct.redisServer, ptr @server, i32 0, i32 418), i32 0, i32 3), align 8, !tbaa !232
  %25 = add nsw i64 %24, 1
  store i64 %25, ptr getelementptr inbounds nuw (%struct.aclInfo, ptr getelementptr inbounds nuw (%struct.redisServer, ptr @server, i32 0, i32 418), i32 0, i32 3), align 8, !tbaa !232
  br label %27

26:                                               ; preds = %20
  call void (ptr, i32, ptr, ...) @_serverPanic(ptr noundef @.str.22, i32 noundef 2647, ptr noundef @.str.123)
  call void @abort() #15
  unreachable

27:                                               ; preds = %23
  br label %28

28:                                               ; preds = %27, %17
  br label %29

29:                                               ; preds = %28, %11
  br label %30

30:                                               ; preds = %29, %5
  ret void
}