; Function Attrs: nounwind uwtable
define dso_local void @ACLUpdateInfoMetrics(i32 noundef %0) local_unnamed_addr #0 {
  switch i32 %0, label %14 [
    i32 3, label %2
    i32 1, label %5
    i32 2, label %8
    i32 4, label %11
  ]

2:                                                ; preds = %1
  %3 = load i64, ptr getelementptr inbounds nuw (i8, ptr @server, i64 8112), align 8, !tbaa !149
  %4 = add nsw i64 %3, 1
  store i64 %4, ptr getelementptr inbounds nuw (i8, ptr @server, i64 8112), align 8, !tbaa !149
  br label %15

5:                                                ; preds = %1
  %6 = load i64, ptr getelementptr inbounds nuw (i8, ptr @server, i64 8120), align 8, !tbaa !150
  %7 = add nsw i64 %6, 1
  store i64 %7, ptr getelementptr inbounds nuw (i8, ptr @server, i64 8120), align 8, !tbaa !150
  br label %15

8:                                                ; preds = %1
  %9 = load i64, ptr getelementptr inbounds nuw (i8, ptr @server, i64 8128), align 8, !tbaa !151
  %10 = add nsw i64 %9, 1
  store i64 %10, ptr getelementptr inbounds nuw (i8, ptr @server, i64 8128), align 8, !tbaa !151
  br label %15

11:                                               ; preds = %1
  %12 = load i64, ptr getelementptr inbounds nuw (i8, ptr @server, i64 8136), align 8, !tbaa !152
  %13 = add nsw i64 %12, 1
  store i64 %13, ptr getelementptr inbounds nuw (i8, ptr @server, i64 8136), align 8, !tbaa !152
  br label %15

14:                                               ; preds = %1
  tail call void (ptr, i32, ptr, ...) @_serverPanic(ptr noundef nonnull @.str.22, i32 noundef 2647, ptr noundef nonnull @.str.123) #25
  tail call void @abort() #27
  unreachable

15:                                               ; preds = %5, %11, %8, %2
  ret void
}